target datalayout = "e-m:e-p270:32:32-p271:32:32-p272:64:64-i64:64-i128:128-f80:128-n8:16:32:64-S128"
target triple = "x86_64-pc-linux-gnu"

%"struct.std::atomic" = type { %"struct.std::__atomic_base" }
%"struct.std::__atomic_base" = type { i8 }
%"class.std::function" = type { %"class.std::_Function_base", ptr }
%"class.std::_Function_base" = type { %"union.std::_Any_data", ptr }
%"union.std::_Any_data" = type { %"union.std::_Nocopy_types" }
%"union.std::_Nocopy_types" = type { { i64, i64 } }

@_ZTIN3nix8SysErrorE = linkonce_odr constant { ptr, ptr, ptr } { ptr getelementptr inbounds (ptr, ptr @_ZTVN10__cxxabiv120__si_class_type_infoE, i64 2), ptr @_ZTSN3nix8SysErrorE, ptr @_ZTIN3nix11SystemErrorE }, comdat, align 8
@.str.4 = private unnamed_addr constant [25 x i8] c"acquiring/releasing lock\00", align 1
@_ZN3nix14_isInterruptedE = external global %"struct.std::atomic", align 1
@_ZN3nix14interruptCheckE = external thread_local global %"class.std::function", align 8

; Function Attrs: mustprogress nounwind uwtable
define linkonce_odr noundef zeroext i1 @_ZNKSt14_Function_base8_M_emptyEv(ptr noundef nonnull align 8 dereferenceable(24) %0) #2 comdat align 2 {
  %2 = alloca ptr, align 8
  store ptr %0, ptr %2, align 8
  %3 = load ptr, ptr %2, align 8
  %4 = getelementptr inbounds %"class.std::_Function_base", ptr %3, i32 0, i32 1
  %5 = load ptr, ptr %4, align 8
  %6 = icmp ne ptr %5, null
  %7 = xor i1 %6, true
  ret i1 %7
}

; Function Attrs: noreturn nounwind uwtable
define linkonce_odr hidden void @__clang_call_terminate(ptr noundef %0) #8 comdat {
  %2 = call ptr @__cxa_begin_catch(ptr %0) #1
  call void @_ZSt9terminatev() #22
  unreachable
}

; Function Attrs: mustprogress nounwind uwtable
define linkonce_odr noundef i32 @_ZStanSt12memory_orderSt23__memory_order_modifier(i32 noundef %0, i32 noundef %1) #2 comdat {
  %3 = alloca i32, align 4
  %4 = alloca i32, align 4
  store i32 %0, ptr %3, align 4
  store i32 %1, ptr %4, align 4
  %5 = load i32, ptr %3, align 4
  %6 = load i32, ptr %4, align 4
  %7 = and i32 %5, %6
  ret i32 %7
}

; Function Attrs: mustprogress uwtable
define linkonce_odr noundef zeroext i1 @_ZNKSt8functionIFbvEEclEv(ptr noundef nonnull align 8 dereferenceable(32) %0) #3 comdat align 2 {
  %2 = alloca ptr, align 8
  store ptr %0, ptr %2, align 8
  %3 = load ptr, ptr %2, align 8
  %4 = call noundef zeroext i1 @_ZNKSt14_Function_base8_M_emptyEv(ptr noundef nonnull align 8 dereferenceable(24) %3)
  br i1 %4, label %5, label %6

5:                                                ; preds = %1
  call void @_ZSt25__throw_bad_function_callv() #21
  unreachable

6:                                                ; preds = %1
  %7 = getelementptr inbounds %"class.std::function", ptr %3, i32 0, i32 1
  %8 = load ptr, ptr %7, align 8
  %9 = getelementptr inbounds %"class.std::_Function_base", ptr %3, i32 0, i32 0
  %10 = call noundef zeroext i1 %8(ptr noundef nonnull align 8 dereferenceable(16) %9)
  ret i1 %10
}

; Function Attrs: mustprogress nounwind uwtable
define linkonce_odr noundef zeroext i1 @_ZNKSt8functionIFbvEEcvbEv(ptr noundef nonnull align 8 dereferenceable(32) %0) #2 comdat align 2 personality ptr @__gxx_personality_v0 {
  %2 = alloca ptr, align 8
  store ptr %0, ptr %2, align 8
  %3 = load ptr, ptr %2, align 8
  %4 = invoke noundef zeroext i1 @_ZNKSt14_Function_base8_M_emptyEv(ptr noundef nonnull align 8 dereferenceable(24) %3)
          to label %5 unwind label %7

5:                                                ; preds = %1
  %6 = xor i1 %4, true
  ret i1 %6

7:                                                ; preds = %1
  %8 = landingpad { ptr, i32 }
          catch ptr null
  %9 = extractvalue { ptr, i32 } %8, 0
  call void @__clang_call_terminate(ptr %9) #22
  unreachable
}

; Function Attrs: uwtable
define linkonce_odr hidden noundef ptr @_ZTWN3nix14interruptCheckE() #14 comdat {
  br i1 icmp ne (ptr @_ZTHN3nix14interruptCheckE, ptr null), label %1, label %2

1:                                                ; preds = %0
  call void @_ZTHN3nix14interruptCheckE()
  br label %2

2:                                                ; preds = %1, %0
  %3 = call align 8 ptr @llvm.threadlocal.address.p0(ptr align 8 @_ZN3nix14interruptCheckE)
  ret ptr %3
}

; Function Attrs: mustprogress nounwind uwtable
define linkonce_odr noundef zeroext i1 @_ZNKSt6atomicIbEcvbEv(ptr noundef nonnull align 1 dereferenceable(1) %0) #2 comdat align 2 personality ptr @__gxx_personality_v0 {
  %2 = alloca ptr, align 8
  %3 = alloca i32, align 4
  %4 = alloca i32, align 4
  %5 = alloca i8, align 1
  %6 = alloca ptr, align 8
  store ptr %0, ptr %6, align 8
  %7 = load ptr, ptr %6, align 8
  %8 = getelementptr inbounds %"struct.std::atomic", ptr %7, i32 0, i32 0
  store ptr %8, ptr %2, align 8
  store i32 5, ptr %3, align 4
  %9 = load ptr, ptr %2, align 8
  %10 = load i32, ptr %3, align 4
  %11 = invoke noundef i32 @_ZStanSt12memory_orderSt23__memory_order_modifier(i32 noundef %10, i32 noundef 65535)
          to label %12 unwind label %20

12:                                               ; preds = %1
  store i32 %11, ptr %4, align 4
  %13 = load i32, ptr %3, align 4
  switch i32 %13, label %14 [
    i32 1, label %16
    i32 2, label %16
    i32 5, label %18
  ]

14:                                               ; preds = %12
  %15 = load atomic i8, ptr %9 monotonic, align 1
  store i8 %15, ptr %5, align 1
  br label %23

16:                                               ; preds = %12, %12
  %17 = load atomic i8, ptr %9 acquire, align 1
  store i8 %17, ptr %5, align 1
  br label %23

18:                                               ; preds = %12
  %19 = load atomic i8, ptr %9 seq_cst, align 1
  store i8 %19, ptr %5, align 1
  br label %23

20:                                               ; preds = %1
  %21 = landingpad { ptr, i32 }
          catch ptr null
  %22 = extractvalue { ptr, i32 } %21, 0
  call void @__clang_call_terminate(ptr %22) #22
  unreachable

23:                                               ; preds = %18, %16, %14
  %24 = load i8, ptr %5, align 1
  %25 = trunc i8 %24 to i1
  ret i1 %25
}

; Function Attrs: mustprogress uwtable
define linkonce_odr void @_ZN3nix14checkInterruptEv() #3 comdat {
  %1 = call noundef zeroext i1 @_ZNKSt6atomicIbEcvbEv(ptr noundef nonnull align 1 dereferenceable(1) @_ZN3nix14_isInterruptedE) #1
  br i1 %1, label %8, label %2

2:                                                ; preds = %0
  %3 = call ptr @_ZTWN3nix14interruptCheckE()
  %4 = call noundef zeroext i1 @_ZNKSt8functionIFbvEEcvbEv(ptr noundef nonnull align 8 dereferenceable(32) %3) #1
  br i1 %4, label %5, label %9

5:                                                ; preds = %2
  %6 = call ptr @_ZTWN3nix14interruptCheckE()
  %7 = call noundef zeroext i1 @_ZNKSt8functionIFbvEEclEv(ptr noundef nonnull align 8 dereferenceable(32) %6)
  br i1 %7, label %8, label %9

8:                                                ; preds = %5, %0
  call void @_ZN3nix12_interruptedEv()
  br label %9

9:                                                ; preds = %8, %5, %2
  ret void
}

; Function Attrs: mustprogress uwtable
define noundef zeroext i1 @_ZN3nix8lockFileEiNS_8LockTypeEb(i32 noundef %0, i32 noundef %1, i1 noundef zeroext %2) #3 personality ptr @__gxx_personality_v0 {
  %4 = alloca i1, align 1
  %5 = alloca i32, align 4
  %6 = alloca i32, align 4
  %7 = alloca i8, align 1
  %8 = alloca i32, align 4
  %9 = alloca ptr, align 8
  %10 = alloca i32, align 4
  store i32 %0, ptr %5, align 4
  store i32 %1, ptr %6, align 4
  %11 = zext i1 %2 to i8
  store i8 %11, ptr %7, align 1
  %12 = load i32, ptr %6, align 4
  %13 = icmp eq i32 %12, 0
  br i1 %13, label %14, label %15

14:                                               ; preds = %3
  store i32 1, ptr %8, align 4
  br label %26

15:                                               ; preds = %3
  %16 = load i32, ptr %6, align 4
  %17 = icmp eq i32 %16, 1
  br i1 %17, label %18, label %19

18:                                               ; preds = %15
  store i32 2, ptr %8, align 4
  br label %25

19:                                               ; preds = %15
  %20 = load i32, ptr %6, align 4
  %21 = icmp eq i32 %20, 2
  br i1 %21, label %22, label %23

22:                                               ; preds = %19
  store i32 8, ptr %8, align 4
  br label %24

23:                                               ; preds = %19
  call void @abort() #22
  unreachable

24:                                               ; preds = %22
  br label %25

25:                                               ; preds = %24, %18
  br label %26

26:                                               ; preds = %25, %14
  %27 = load i8, ptr %7, align 1
  %28 = trunc i8 %27 to i1
  br i1 %28, label %29, label %48

29:                                               ; preds = %26
  br label %30

30:                                               ; preds = %29
  %31 = load i32, ptr %5, align 4
  %32 = load i32, ptr %8, align 4
  %33 = call i32 @flock(i32 noundef %31, i32 noundef %32) #1
  %34 = icmp ne i32 %33, 0
  br i1 %34, label %35, label %47

35:                                               ; preds = %30
  call void @_ZN3nix14checkInterruptEv()
  %36 = call ptr @__errno_location() #20
  %37 = load i32, ptr %36, align 4
  %38 = icmp ne i32 %37, 4
  br i1 %38, label %39, label %46

39:                                               ; preds = %35
  %40 = call ptr @__cxa_allocate_exception(i64 384) #1
  invoke void @_ZN3nix8SysErrorC2IJA25_cEEEDpRKT_(ptr noundef nonnull align 8 dereferenceable(380) %40, ptr noundef nonnull align 1 dereferenceable(25) @.str.4)
          to label %41 unwind label %42

41:                                               ; preds = %39
  call void @__cxa_throw(ptr %40, ptr @_ZTIN3nix8SysErrorE, ptr @_ZN3nix8SysErrorD2Ev) #21
  unreachable

42:                                               ; preds = %39
  %43 = landingpad { ptr, i32 }
          cleanup
  %44 = extractvalue { ptr, i32 } %43, 0
  store ptr %44, ptr %9, align 8
  %45 = extractvalue { ptr, i32 } %43, 1
  store i32 %45, ptr %10, align 4
  call void @__cxa_free_exception(ptr %40) #1
  br label %76

46:                                               ; preds = %35
  store i1 false, ptr %4, align 1
  br label %74

47:                                               ; preds = %30
  br label %73

48:                                               ; preds = %26
  br label %49

49:                                               ; preds = %71, %48
  %50 = load i32, ptr %5, align 4
  %51 = load i32, ptr %8, align 4
  %52 = or i32 %51, 4
  %53 = call i32 @flock(i32 noundef %50, i32 noundef %52) #1
  %54 = icmp ne i32 %53, 0
  br i1 %54, label %55, label %72

55:                                               ; preds = %49
  call void @_ZN3nix14checkInterruptEv()
  %56 = call ptr @__errno_location() #20
  %57 = load i32, ptr %56, align 4
  %58 = icmp eq i32 %57, 11
  br i1 %58, label %59, label %60

59:                                               ; preds = %55
  store i1 false, ptr %4, align 1
  br label %74

60:                                               ; preds = %55
  %61 = call ptr @__errno_location() #20
  %62 = load i32, ptr %61, align 4
  %63 = icmp ne i32 %62, 4
  br i1 %63, label %64, label %71

64:                                               ; preds = %60
  %65 = call ptr @__cxa_allocate_exception(i64 384) #1
  invoke void @_ZN3nix8SysErrorC2IJA25_cEEEDpRKT_(ptr noundef nonnull align 8 dereferenceable(380) %65, ptr noundef nonnull align 1 dereferenceable(25) @.str.4)
          to label %66 unwind label %67

66:                                               ; preds = %64
  call void @__cxa_throw(ptr %65, ptr @_ZTIN3nix8SysErrorE, ptr @_ZN3nix8SysErrorD2Ev) #21
  unreachable

67:                                               ; preds = %64
  %68 = landingpad { ptr, i32 }
          cleanup
  %69 = extractvalue { ptr, i32 } %68, 0
  store ptr %69, ptr %9, align 8
  %70 = extractvalue { ptr, i32 } %68, 1
  store i32 %70, ptr %10, align 4
  call void @__cxa_free_exception(ptr %65) #1
  br label %76

71:                                               ; preds = %60
  br label %49, !llvm.loop !4

72:                                               ; preds = %49
  br label %73

73:                                               ; preds = %72, %47
  store i1 true, ptr %4, align 1
  br label %74

74:                                               ; preds = %73, %59, %46
  %75 = load i1, ptr %4, align 1
  ret i1 %75

76:                                               ; preds = %67, %42
  %77 = load ptr, ptr %9, align 8
  %78 = load i32, ptr %10, align 4
  %79 = insertvalue { ptr, i32 } poison, ptr %77, 0
  %80 = insertvalue { ptr, i32 } %79, i32 %78, 1
  resume { ptr, i32 } %80
}