; Function Attrs: uwtable
define noundef zeroext i1 @_ZN3nix8lockFileEiNS_8LockTypeEb(i32 noundef %0, i32 noundef %1, i1 noundef zeroext %2) local_unnamed_addr #9 personality ptr @__gxx_personality_v0 {
  %4 = icmp ult i32 %1, 3
  br i1 %4, label %switch.lookup, label %5

5:                                                ; preds = %3
  tail call void @abort() #31
  unreachable

switch.lookup:                                    ; preds = %3
  %6 = zext nneg i32 %1 to i64
  %switch.gep = getelementptr inbounds [3 x i32], ptr @switch.table._ZN3nix8lockFileEiNS_8LockTypeEb, i64 0, i64 %6
  %switch.load = load i32, ptr %switch.gep, align 4
  br i1 %2, label %11, label %.preheader

.preheader:                                       ; preds = %switch.lookup
  %7 = or disjoint i32 %switch.load, 4
  %8 = tail call align 8 ptr @llvm.threadlocal.address.p0(ptr align 8 @_ZN3nix14interruptCheckE)
  %9 = getelementptr inbounds i8, ptr %8, i64 16
  %10 = getelementptr inbounds i8, ptr %8, i64 24
  br label %34

11:                                               ; preds = %switch.lookup
  %12 = tail call i32 @flock(i32 noundef %0, i32 noundef %switch.load) #27
  %.not16 = icmp eq i32 %12, 0
  br i1 %.not16, label %.loopexit, label %13

13:                                               ; preds = %11
  %14 = load atomic i8, ptr @_ZN3nix14_isInterruptedE seq_cst, align 1
  %15 = and i8 %14, 1
  %.not.i = icmp eq i8 %15, 0
  br i1 %.not.i, label %16, label %26

16:                                               ; preds = %13
  br i1 icmp ne (ptr @_ZTHN3nix14interruptCheckE, ptr null), label %17, label %_ZTWN3nix14interruptCheckE.exit.i

17:                                               ; preds = %16
  tail call void @_ZTHN3nix14interruptCheckE()
  br label %_ZTWN3nix14interruptCheckE.exit.i

_ZTWN3nix14interruptCheckE.exit.i:                ; preds = %17, %16
  %18 = tail call noundef align 8 ptr @llvm.threadlocal.address.p0(ptr align 8 @_ZN3nix14interruptCheckE)
  %19 = getelementptr inbounds i8, ptr %18, i64 16
  %20 = load ptr, ptr %19, align 8
  %.not.i.i.not.i = icmp eq ptr %20, null
  br i1 %.not.i.i.not.i, label %_ZN3nix14checkInterruptEv.exit, label %21

21:                                               ; preds = %_ZTWN3nix14interruptCheckE.exit.i
  br i1 icmp ne (ptr @_ZTHN3nix14interruptCheckE, ptr null), label %_ZTWN3nix14interruptCheckE.exit1.i, label %_ZNKSt8functionIFbvEEclEv.exit.i

_ZTWN3nix14interruptCheckE.exit1.i:               ; preds = %21
  tail call void @_ZTHN3nix14interruptCheckE()
  %.pr.i = load ptr, ptr %19, align 8
  %.not.i.i2.i = icmp eq ptr %.pr.i, null
  br i1 %.not.i.i2.i, label %22, label %_ZNKSt8functionIFbvEEclEv.exit.i

22:                                               ; preds = %_ZTWN3nix14interruptCheckE.exit1.i
  tail call void @_ZSt25__throw_bad_function_callv() #29
  unreachable

_ZNKSt8functionIFbvEEclEv.exit.i:                 ; preds = %_ZTWN3nix14interruptCheckE.exit1.i, %21
  %23 = getelementptr inbounds i8, ptr %18, i64 24
  %24 = load ptr, ptr %23, align 8
  %25 = tail call noundef zeroext i1 %24(ptr noundef nonnull align 8 dereferenceable(16) %18)
  br i1 %25, label %26, label %_ZN3nix14checkInterruptEv.exit

26:                                               ; preds = %_ZNKSt8functionIFbvEEclEv.exit.i, %13
  tail call void @_ZN3nix12_interruptedEv()
  br label %_ZN3nix14checkInterruptEv.exit

_ZN3nix14checkInterruptEv.exit:                   ; preds = %_ZTWN3nix14interruptCheckE.exit.i, %_ZNKSt8functionIFbvEEclEv.exit.i, %26
  %27 = tail call ptr @__errno_location() #28
  %28 = load i32, ptr %27, align 4
  %.not17 = icmp eq i32 %28, 4
  br i1 %.not17, label %.loopexit, label %29

29:                                               ; preds = %_ZN3nix14checkInterruptEv.exit
  %30 = tail call ptr @__cxa_allocate_exception(i64 384) #27
  invoke void @_ZN3nix8SysErrorC2IJA25_cEEEDpRKT_(ptr noundef nonnull align 8 dereferenceable(380) %30, ptr noundef nonnull align 1 dereferenceable(25) @.str.4)
          to label %31 unwind label %32

31:                                               ; preds = %29
  tail call void @__cxa_throw(ptr nonnull %30, ptr nonnull @_ZTIN3nix8SysErrorE, ptr nonnull @_ZN3nix8SysErrorD2Ev) #29
  unreachable

32:                                               ; preds = %29
  %33 = landingpad { ptr, i32 }
          cleanup
  br label %54

34:                                               ; preds = %.preheader, %_ZN3nix14checkInterruptEv.exit26
  %35 = tail call i32 @flock(i32 noundef %0, i32 noundef %7) #27
  %.not = icmp eq i32 %35, 0
  br i1 %.not, label %.loopexit, label %36

36:                                               ; preds = %34
  %37 = load atomic i8, ptr @_ZN3nix14_isInterruptedE seq_cst, align 1
  %38 = and i8 %37, 1
  %.not.i19 = icmp eq i8 %38, 0
  br i1 %.not.i19, label %39, label %46

39:                                               ; preds = %36
  br i1 icmp ne (ptr @_ZTHN3nix14interruptCheckE, ptr null), label %40, label %_ZTWN3nix14interruptCheckE.exit.i20

40:                                               ; preds = %39
  tail call void @_ZTHN3nix14interruptCheckE()
  br label %_ZTWN3nix14interruptCheckE.exit.i20

_ZTWN3nix14interruptCheckE.exit.i20:              ; preds = %40, %39
  %41 = load ptr, ptr %9, align 8
  %.not.i.i.not.i21 = icmp eq ptr %41, null
  br i1 %.not.i.i.not.i21, label %_ZN3nix14checkInterruptEv.exit26, label %42

42:                                               ; preds = %_ZTWN3nix14interruptCheckE.exit.i20
  br i1 icmp ne (ptr @_ZTHN3nix14interruptCheckE, ptr null), label %_ZTWN3nix14interruptCheckE.exit1.i23, label %_ZNKSt8functionIFbvEEclEv.exit.i22

_ZTWN3nix14interruptCheckE.exit1.i23:             ; preds = %42
  tail call void @_ZTHN3nix14interruptCheckE()
  %.pr.i24 = load ptr, ptr %9, align 8
  %.not.i.i2.i25 = icmp eq ptr %.pr.i24, null
  br i1 %.not.i.i2.i25, label %43, label %_ZNKSt8functionIFbvEEclEv.exit.i22

43:                                               ; preds = %_ZTWN3nix14interruptCheckE.exit1.i23
  tail call void @_ZSt25__throw_bad_function_callv() #29
  unreachable

_ZNKSt8functionIFbvEEclEv.exit.i22:               ; preds = %_ZTWN3nix14interruptCheckE.exit1.i23, %42
  %44 = load ptr, ptr %10, align 8
  %45 = tail call noundef zeroext i1 %44(ptr noundef nonnull align 8 dereferenceable(16) %8)
  br i1 %45, label %46, label %_ZN3nix14checkInterruptEv.exit26

46:                                               ; preds = %_ZNKSt8functionIFbvEEclEv.exit.i22, %36
  tail call void @_ZN3nix12_interruptedEv()
  br label %_ZN3nix14checkInterruptEv.exit26

_ZN3nix14checkInterruptEv.exit26:                 ; preds = %_ZTWN3nix14interruptCheckE.exit.i20, %_ZNKSt8functionIFbvEEclEv.exit.i22, %46
  %47 = tail call ptr @__errno_location() #28
  %48 = load i32, ptr %47, align 4
  switch i32 %48, label %49 [
    i32 11, label %.loopexit
    i32 4, label %34
  ]

49:                                               ; preds = %_ZN3nix14checkInterruptEv.exit26
  %50 = tail call ptr @__cxa_allocate_exception(i64 384) #27
  invoke void @_ZN3nix8SysErrorC2IJA25_cEEEDpRKT_(ptr noundef nonnull align 8 dereferenceable(380) %50, ptr noundef nonnull align 1 dereferenceable(25) @.str.4)
          to label %51 unwind label %52

51:                                               ; preds = %49
  tail call void @__cxa_throw(ptr nonnull %50, ptr nonnull @_ZTIN3nix8SysErrorE, ptr nonnull @_ZN3nix8SysErrorD2Ev) #29
  unreachable

52:                                               ; preds = %49
  %53 = landingpad { ptr, i32 }
          cleanup
  br label %54

.loopexit:                                        ; preds = %34, %_ZN3nix14checkInterruptEv.exit26, %11, %_ZN3nix14checkInterruptEv.exit
  %.012 = phi i1 [ false, %_ZN3nix14checkInterruptEv.exit ], [ true, %11 ], [ %.not, %_ZN3nix14checkInterruptEv.exit26 ], [ %.not, %34 ]
  ret i1 %.012

54:                                               ; preds = %52, %32
  %.sink = phi ptr [ %50, %52 ], [ %30, %32 ]
  %.pn = phi { ptr, i32 } [ %53, %52 ], [ %33, %32 ]
  tail call void @__cxa_free_exception(ptr %.sink) #27
  resume { ptr, i32 } %.pn
}